target datalayout = "e-m:e-p270:32:32-p271:32:32-p272:64:64-i64:64-i128:128-f80:128-n8:16:32:64-S128"
target triple = "x86_64-unknown-linux-gnu"

%"class.std::vector" = type { %"struct.std::_Vector_base" }
%"struct.std::_Vector_base" = type { %"struct.std::_Vector_base<unsigned long, std::allocator<unsigned long>>::_Vector_impl" }
%"struct.std::_Vector_base<unsigned long, std::allocator<unsigned long>>::_Vector_impl" = type { %"struct.std::_Vector_base<unsigned long, std::allocator<unsigned long>>::_Vector_impl_data" }
%"struct.std::_Vector_base<unsigned long, std::allocator<unsigned long>>::_Vector_impl_data" = type { ptr, ptr, ptr }
%"class.facebook::velox::SelectivityVector" = type <{ %"class.std::vector", i32, i32, i32, %"class.std::optional.0", [2 x i8] }>
%"class.std::optional.0" = type { %"struct.std::_Optional_base.1" }
%"struct.std::_Optional_base.1" = type { %"struct.std::_Optional_payload.3" }
%"struct.std::_Optional_payload.3" = type { %"struct.std::_Optional_payload_base.4" }
%"struct.std::_Optional_payload_base.4" = type { %"union.std::_Optional_payload_base<bool>::_Storage", i8 }
%"union.std::_Optional_payload_base<bool>::_Storage" = type { %"struct.std::_Optional_payload_base<bool>::_Empty_byte" }
%"struct.std::_Optional_payload_base<bool>::_Empty_byte" = type { i8 }
%class.anon.61 = type { ptr, i64 }
%class.anon.62 = type { ptr, i64 }

; Function Attrs: mustprogress nounwind uwtable
define linkonce_odr noundef zeroext i1 @_ZZN8facebook5velox4bits8isAllSetEPKmiibENKUliE_clEi(ptr noundef nonnull align 8 dereferenceable(16) %this, i32 noundef %idx) #1 comdat align 2 {
entry:
  %this.addr = alloca ptr, align 8
  %idx.addr = alloca i32, align 4
  store ptr %this, ptr %this.addr, align 8
  store i32 %idx, ptr %idx.addr, align 4
  %this1 = load ptr, ptr %this.addr, align 8
  %0 = getelementptr inbounds %class.anon.62, ptr %this1, i32 0, i32 1
  %1 = load i64, ptr %0, align 8
  %2 = getelementptr inbounds %class.anon.62, ptr %this1, i32 0, i32 0
  %3 = load ptr, ptr %2, align 8
  %4 = load i32, ptr %idx.addr, align 4
  %idxprom = sext i32 %4 to i64
  %arrayidx = getelementptr inbounds i64, ptr %3, i64 %idxprom
  %5 = load i64, ptr %arrayidx, align 8
  %cmp = icmp eq i64 %1, %5
  ret i1 %cmp
}

; Function Attrs: mustprogress nounwind uwtable
define linkonce_odr noundef zeroext i1 @_ZZN8facebook5velox4bits8isAllSetEPKmiibENKUlimE_clEim(ptr noundef nonnull align 8 dereferenceable(16) %this, i32 noundef %idx, i64 noundef %mask) #1 comdat align 2 {
entry:
  %this.addr = alloca ptr, align 8
  %idx.addr = alloca i32, align 4
  %mask.addr = alloca i64, align 8
  store ptr %this, ptr %this.addr, align 8
  store i32 %idx, ptr %idx.addr, align 4
  store i64 %mask, ptr %mask.addr, align 8
  %this1 = load ptr, ptr %this.addr, align 8
  %0 = getelementptr inbounds %class.anon.61, ptr %this1, i32 0, i32 1
  %1 = load i64, ptr %0, align 8
  %2 = load i64, ptr %mask.addr, align 8
  %and = and i64 %1, %2
  %3 = getelementptr inbounds %class.anon.61, ptr %this1, i32 0, i32 0
  %4 = load ptr, ptr %3, align 8
  %5 = load i32, ptr %idx.addr, align 4
  %idxprom = sext i32 %5 to i64
  %arrayidx = getelementptr inbounds i64, ptr %4, i64 %idxprom
  %6 = load i64, ptr %arrayidx, align 8
  %7 = load i64, ptr %mask.addr, align 8
  %and2 = and i64 %6, %7
  %cmp = icmp eq i64 %and, %and2
  ret i1 %cmp
}

; Function Attrs: mustprogress nounwind uwtable
define linkonce_odr noundef i64 @_ZN8facebook5velox4bits8highMaskEi(i32 noundef %bits) #1 comdat {
entry:
  %bits.addr = alloca i32, align 4
  store i32 %bits, ptr %bits.addr, align 4
  %0 = load i32, ptr %bits.addr, align 4
  %call = call noundef i64 @_ZN8facebook5velox4bits7lowMaskEi(i32 noundef %0)
  %1 = load i32, ptr %bits.addr, align 4
  %sub = sub nsw i32 64, %1
  %sh_prom = zext i32 %sub to i64
  %shl = shl i64 %call, %sh_prom
  ret i64 %shl
}

; Function Attrs: mustprogress nounwind uwtable
define linkonce_odr noundef i64 @_ZN8facebook5velox4bits7lowMaskEi(i32 noundef %bits) #1 comdat {
entry:
  %bits.addr = alloca i32, align 4
  store i32 %bits, ptr %bits.addr, align 4
  %0 = load i32, ptr %bits.addr, align 4
  %sh_prom = zext i32 %0 to i64
  %shl = shl i64 1, %sh_prom
  %sub = sub i64 %shl, 1
  ret i64 %sub
}

; Function Attrs: mustprogress nounwind uwtable
define linkonce_odr noundef i32 @_ZN8facebook5velox4bits7roundUpIiiEET_S3_T0_(i32 noundef %value, i32 noundef %factor) #1 comdat {
entry:
  %value.addr = alloca i32, align 4
  %factor.addr = alloca i32, align 4
  store i32 %value, ptr %value.addr, align 4
  store i32 %factor, ptr %factor.addr, align 4
  %0 = load i32, ptr %value.addr, align 4
  %1 = load i32, ptr %factor.addr, align 4
  %sub = sub nsw i32 %1, 1
  %add = add nsw i32 %0, %sub
  %2 = load i32, ptr %factor.addr, align 4
  %div = sdiv i32 %add, %2
  %3 = load i32, ptr %factor.addr, align 4
  %mul = mul nsw i32 %div, %3
  ret i32 %mul
}

; Function Attrs: mustprogress uwtable
define linkonce_odr noundef zeroext i1 @_ZN8facebook5velox4bits9testWordsIZNS1_8isAllSetEPKmiibEUlimE_ZNS1_8isAllSetES4_iibEUliE_EEbiiT_T0_(i32 noundef %begin, i32 noundef %end, ptr %partialWordFunc.coerce0, i64 %partialWordFunc.coerce1, ptr %fullWordFunc.coerce0, i64 %fullWordFunc.coerce1) #0 comdat {
entry:
  %retval = alloca i1, align 1
  %partialWordFunc = alloca %class.anon.61, align 8
  %fullWordFunc = alloca %class.anon.62, align 8
  %begin.addr = alloca i32, align 4
  %end.addr = alloca i32, align 4
  %firstWord = alloca i32, align 4
  %lastWord = alloca i32, align 4
  %i = alloca i32, align 4
  %0 = getelementptr inbounds { ptr, i64 }, ptr %partialWordFunc, i32 0, i32 0
  store ptr %partialWordFunc.coerce0, ptr %0, align 8
  %1 = getelementptr inbounds { ptr, i64 }, ptr %partialWordFunc, i32 0, i32 1
  store i64 %partialWordFunc.coerce1, ptr %1, align 8
  %2 = getelementptr inbounds { ptr, i64 }, ptr %fullWordFunc, i32 0, i32 0
  store ptr %fullWordFunc.coerce0, ptr %2, align 8
  %3 = getelementptr inbounds { ptr, i64 }, ptr %fullWordFunc, i32 0, i32 1
  store i64 %fullWordFunc.coerce1, ptr %3, align 8
  store i32 %begin, ptr %begin.addr, align 4
  store i32 %end, ptr %end.addr, align 4
  %4 = load i32, ptr %begin.addr, align 4
  %5 = load i32, ptr %end.addr, align 4
  %cmp = icmp sge i32 %4, %5
  br i1 %cmp, label %if.then, label %if.end

if.then:                                          ; preds = %entry
  store i1 true, ptr %retval, align 1
  br label %return

if.end:                                           ; preds = %entry
  %6 = load i32, ptr %begin.addr, align 4
  %call = call noundef i32 @_ZN8facebook5velox4bits7roundUpIiiEET_S3_T0_(i32 noundef %6, i32 noundef 64)
  store i32 %call, ptr %firstWord, align 4
  %7 = load i32, ptr %end.addr, align 4
  %conv = sext i32 %7 to i64
  %and = and i64 %conv, -64
  %conv1 = trunc i64 %and to i32
  store i32 %conv1, ptr %lastWord, align 4
  %8 = load i32, ptr %lastWord, align 4
  %9 = load i32, ptr %firstWord, align 4
  %cmp2 = icmp slt i32 %8, %9
  br i1 %cmp2, label %if.then3, label %if.end9

if.then3:                                         ; preds = %if.end
  %10 = load i32, ptr %lastWord, align 4
  %div = sdiv i32 %10, 64
  %11 = load i32, ptr %end.addr, align 4
  %12 = load i32, ptr %lastWord, align 4
  %sub = sub nsw i32 %11, %12
  %call4 = call noundef i64 @_ZN8facebook5velox4bits7lowMaskEi(i32 noundef %sub)
  %13 = load i32, ptr %firstWord, align 4
  %14 = load i32, ptr %begin.addr, align 4
  %sub5 = sub nsw i32 %13, %14
  %call6 = call noundef i64 @_ZN8facebook5velox4bits8highMaskEi(i32 noundef %sub5)
  %and7 = and i64 %call4, %call6
  %call8 = call noundef zeroext i1 @_ZZN8facebook5velox4bits8isAllSetEPKmiibENKUlimE_clEim(ptr noundef nonnull align 8 dereferenceable(16) %partialWordFunc, i32 noundef %div, i64 noundef %and7)
  store i1 %call8, ptr %retval, align 1
  br label %return

if.end9:                                          ; preds = %if.end
  %15 = load i32, ptr %begin.addr, align 4
  %16 = load i32, ptr %firstWord, align 4
  %cmp10 = icmp ne i32 %15, %16
  br i1 %cmp10, label %if.then11, label %if.end18

if.then11:                                        ; preds = %if.end9
  %17 = load i32, ptr %begin.addr, align 4
  %div12 = sdiv i32 %17, 64
  %18 = load i32, ptr %firstWord, align 4
  %19 = load i32, ptr %begin.addr, align 4
  %sub13 = sub nsw i32 %18, %19
  %call14 = call noundef i64 @_ZN8facebook5velox4bits8highMaskEi(i32 noundef %sub13)
  %call15 = call noundef zeroext i1 @_ZZN8facebook5velox4bits8isAllSetEPKmiibENKUlimE_clEim(ptr noundef nonnull align 8 dereferenceable(16) %partialWordFunc, i32 noundef %div12, i64 noundef %call14)
  br i1 %call15, label %if.end17, label %if.then16

if.then16:                                        ; preds = %if.then11
  store i1 false, ptr %retval, align 1
  br label %return

if.end17:                                         ; preds = %if.then11
  br label %if.end18

if.end18:                                         ; preds = %if.end17, %if.end9
  %20 = load i32, ptr %firstWord, align 4
  store i32 %20, ptr %i, align 4
  br label %for.cond

for.cond:                                         ; preds = %for.inc, %if.end18
  %21 = load i32, ptr %i, align 4
  %add = add nsw i32 %21, 64
  %22 = load i32, ptr %lastWord, align 4
  %cmp19 = icmp sle i32 %add, %22
  br i1 %cmp19, label %for.body, label %for.end

for.body:                                         ; preds = %for.cond
  %23 = load i32, ptr %i, align 4
  %div20 = sdiv i32 %23, 64
  %call21 = call noundef zeroext i1 @_ZZN8facebook5velox4bits8isAllSetEPKmiibENKUliE_clEi(ptr noundef nonnull align 8 dereferenceable(16) %fullWordFunc, i32 noundef %div20)
  br i1 %call21, label %if.end23, label %if.then22

if.then22:                                        ; preds = %for.body
  store i1 false, ptr %retval, align 1
  br label %return

if.end23:                                         ; preds = %for.body
  br label %for.inc

for.inc:                                          ; preds = %if.end23
  %24 = load i32, ptr %i, align 4
  %add24 = add nsw i32 %24, 64
  store i32 %add24, ptr %i, align 4
  br label %for.cond, !llvm.loop !10

for.end:                                          ; preds = %for.cond
  %25 = load i32, ptr %end.addr, align 4
  %26 = load i32, ptr %lastWord, align 4
  %cmp25 = icmp ne i32 %25, %26
  br i1 %cmp25, label %if.then26, label %if.end31

if.then26:                                        ; preds = %for.end
  %27 = load i32, ptr %lastWord, align 4
  %div27 = sdiv i32 %27, 64
  %28 = load i32, ptr %end.addr, align 4
  %29 = load i32, ptr %lastWord, align 4
  %sub28 = sub nsw i32 %28, %29
  %call29 = call noundef i64 @_ZN8facebook5velox4bits7lowMaskEi(i32 noundef %sub28)
  %call30 = call noundef zeroext i1 @_ZZN8facebook5velox4bits8isAllSetEPKmiibENKUlimE_clEim(ptr noundef nonnull align 8 dereferenceable(16) %partialWordFunc, i32 noundef %div27, i64 noundef %call29)
  store i1 %call30, ptr %retval, align 1
  br label %return

if.end31:                                         ; preds = %for.end
  store i1 true, ptr %retval, align 1
  br label %return

return:                                           ; preds = %if.end31, %if.then26, %if.then22, %if.then16, %if.then3, %if.then
  %30 = load i1, ptr %retval, align 1
  ret i1 %30
}

; Function Attrs: mustprogress uwtable
define linkonce_odr noundef zeroext i1 @_ZN8facebook5velox4bits8isAllSetEPKmiib(ptr noundef %bits, i32 noundef %begin, i32 noundef %end, i1 noundef zeroext %value) #0 comdat {
entry:
  %retval = alloca i1, align 1
  %bits.addr = alloca ptr, align 8
  %begin.addr = alloca i32, align 4
  %end.addr = alloca i32, align 4
  %value.addr = alloca i8, align 1
  %word = alloca i64, align 8
  %agg.tmp = alloca %class.anon.61, align 8
  %agg.tmp1 = alloca %class.anon.62, align 8
  store ptr %bits, ptr %bits.addr, align 8
  store i32 %begin, ptr %begin.addr, align 4
  store i32 %end, ptr %end.addr, align 4
  %frombool = zext i1 %value to i8
  store i8 %frombool, ptr %value.addr, align 1
  %0 = load i32, ptr %begin.addr, align 4
  %1 = load i32, ptr %end.addr, align 4
  %cmp = icmp sge i32 %0, %1
  br i1 %cmp, label %if.then, label %if.end

if.then:                                          ; preds = %entry
  store i1 true, ptr %retval, align 1
  br label %return

if.end:                                           ; preds = %entry
  %2 = load i8, ptr %value.addr, align 1
  %tobool = trunc i8 %2 to i1
  %cond = select i1 %tobool, i32 -1, i32 0
  %conv = sext i32 %cond to i64
  store i64 %conv, ptr %word, align 8
  %3 = load i32, ptr %begin.addr, align 4
  %4 = load i32, ptr %end.addr, align 4
  %5 = getelementptr inbounds %class.anon.61, ptr %agg.tmp, i32 0, i32 0
  %6 = load ptr, ptr %bits.addr, align 8
  store ptr %6, ptr %5, align 8
  %7 = getelementptr inbounds %class.anon.61, ptr %agg.tmp, i32 0, i32 1
  %8 = load i64, ptr %word, align 8
  store i64 %8, ptr %7, align 8
  %9 = getelementptr inbounds %class.anon.62, ptr %agg.tmp1, i32 0, i32 0
  %10 = load ptr, ptr %bits.addr, align 8
  store ptr %10, ptr %9, align 8
  %11 = getelementptr inbounds %class.anon.62, ptr %agg.tmp1, i32 0, i32 1
  %12 = load i64, ptr %word, align 8
  store i64 %12, ptr %11, align 8
  %13 = getelementptr inbounds { ptr, i64 }, ptr %agg.tmp, i32 0, i32 0
  %14 = load ptr, ptr %13, align 8
  %15 = getelementptr inbounds { ptr, i64 }, ptr %agg.tmp, i32 0, i32 1
  %16 = load i64, ptr %15, align 8
  %17 = getelementptr inbounds { ptr, i64 }, ptr %agg.tmp1, i32 0, i32 0
  %18 = load ptr, ptr %17, align 8
  %19 = getelementptr inbounds { ptr, i64 }, ptr %agg.tmp1, i32 0, i32 1
  %20 = load i64, ptr %19, align 8
  %call = call noundef zeroext i1 @_ZN8facebook5velox4bits9testWordsIZNS1_8isAllSetEPKmiibEUlimE_ZNS1_8isAllSetES4_iibEUliE_EEbiiT_T0_(i32 noundef %3, i32 noundef %4, ptr %14, i64 %16, ptr %18, i64 %20)
  store i1 %call, ptr %retval, align 1
  br label %return

return:                                           ; preds = %if.end, %if.then
  %21 = load i1, ptr %retval, align 1
  ret i1 %21
}

; Function Attrs: mustprogress nounwind uwtable
define linkonce_odr noundef i32 @_ZNK8facebook5velox17SelectivityVector3endEv(ptr noundef nonnull align 8 dereferenceable(38) %this) #1 comdat align 2 {
entry:
  %this.addr = alloca ptr, align 8
  store ptr %this, ptr %this.addr, align 8
  %this1 = load ptr, ptr %this.addr, align 8
  %end_ = getelementptr inbounds %"class.facebook::velox::SelectivityVector", ptr %this1, i32 0, i32 3
  %0 = load i32, ptr %end_, align 8
  ret i32 %0
}

; Function Attrs: mustprogress nounwind uwtable
define linkonce_odr noundef i32 @_ZNK8facebook5velox17SelectivityVector5beginEv(ptr noundef nonnull align 8 dereferenceable(38) %this) #1 comdat align 2 {
entry:
  %this.addr = alloca ptr, align 8
  store ptr %this, ptr %this.addr, align 8
  %this1 = load ptr, ptr %this.addr, align 8
  %begin_ = getelementptr inbounds %"class.facebook::velox::SelectivityVector", ptr %this1, i32 0, i32 2
  %0 = load i32, ptr %begin_, align 4
  ret i32 %0
}

; Function Attrs: mustprogress uwtable
define internal noundef i32 @_ZN8facebook5velox4exec12_GLOBAL__N_123refineBooleanMixNonNullEPKmRKNS0_17SelectivityVectorE(ptr noundef %bits, ptr noundef nonnull align 8 dereferenceable(38) %rows) #0 {
entry:
  %retval = alloca i32, align 4
  %bits.addr = alloca ptr, align 8
  %rows.addr = alloca ptr, align 8
  %first = alloca i32, align 4
  store ptr %bits, ptr %bits.addr, align 8
  store ptr %rows, ptr %rows.addr, align 8
  %0 = load ptr, ptr %bits.addr, align 8
  %1 = load ptr, ptr %rows.addr, align 8
  %call = call noundef i32 @_ZNK8facebook5velox17SelectivityVector5beginEv(ptr noundef nonnull align 8 dereferenceable(38) %1)
  %2 = load ptr, ptr %rows.addr, align 8
  %call1 = call noundef i32 @_ZNK8facebook5velox17SelectivityVector3endEv(ptr noundef nonnull align 8 dereferenceable(38) %2)
  %call2 = call noundef i32 @_ZN8facebook5velox4bits12findFirstBitEPKmii(ptr noundef %0, i32 noundef %call, i32 noundef %call1)
  store i32 %call2, ptr %first, align 4
  %3 = load i32, ptr %first, align 4
  %cmp = icmp slt i32 %3, 0
  br i1 %cmp, label %if.then, label %if.end

if.then:                                          ; preds = %entry
  store i32 1, ptr %retval, align 4
  br label %return

if.end:                                           ; preds = %entry
  %4 = load i32, ptr %first, align 4
  %5 = load ptr, ptr %rows.addr, align 8
  %call3 = call noundef i32 @_ZNK8facebook5velox17SelectivityVector5beginEv(ptr noundef nonnull align 8 dereferenceable(38) %5)
  %cmp4 = icmp eq i32 %4, %call3
  br i1 %cmp4, label %land.lhs.true, label %if.end9

land.lhs.true:                                    ; preds = %if.end
  %6 = load ptr, ptr %bits.addr, align 8
  %7 = load ptr, ptr %rows.addr, align 8
  %call5 = call noundef i32 @_ZNK8facebook5velox17SelectivityVector5beginEv(ptr noundef nonnull align 8 dereferenceable(38) %7)
  %8 = load ptr, ptr %rows.addr, align 8
  %call6 = call noundef i32 @_ZNK8facebook5velox17SelectivityVector3endEv(ptr noundef nonnull align 8 dereferenceable(38) %8)
  %call7 = call noundef zeroext i1 @_ZN8facebook5velox4bits8isAllSetEPKmiib(ptr noundef %6, i32 noundef %call5, i32 noundef %call6, i1 noundef zeroext true)
  br i1 %call7, label %if.then8, label %if.end9

if.then8:                                         ; preds = %land.lhs.true
  store i32 0, ptr %retval, align 4
  br label %return

if.end9:                                          ; preds = %land.lhs.true, %if.end
  store i32 3, ptr %retval, align 4
  br label %return

return:                                           ; preds = %if.end9, %if.then8, %if.then
  %9 = load i32, ptr %retval, align 4
  ret i32 %9
}