; Function Attrs: mustprogress uwtable
define internal fastcc noundef i32 @_ZN8facebook5velox4exec12_GLOBAL__N_123refineBooleanMixNonNullEPKmRKNS0_17SelectivityVectorE(ptr noundef %bits, ptr nocapture noundef nonnull readonly align 8 dereferenceable(38) %rows) unnamed_addr #0 {
entry:
  %begin_.i = getelementptr inbounds i8, ptr %rows, i64 28
  %0 = load i32, ptr %begin_.i, align 4
  %end_.i = getelementptr inbounds i8, ptr %rows, i64 32
  %1 = load i32, ptr %end_.i, align 8
  %call2 = tail call noundef i32 @_ZN8facebook5velox4bits12findFirstBitEPKmii(ptr noundef %bits, i32 noundef %0, i32 noundef %1)
  %cmp = icmp slt i32 %call2, 0
  br i1 %cmp, label %return, label %if.end

if.end:                                           ; preds = %entry
  %2 = load i32, ptr %begin_.i, align 4
  %cmp4 = icmp eq i32 %call2, %2
  br i1 %cmp4, label %land.lhs.true, label %if.end9

land.lhs.true:                                    ; preds = %if.end
  %3 = load i32, ptr %end_.i, align 8
  %cmp.not.i = icmp slt i32 %call2, %3
  br i1 %cmp.not.i, label %if.end.i.i, label %return

if.end.i.i:                                       ; preds = %land.lhs.true
  %add.i.i.i = add nuw i32 %call2, 63
  %4 = srem i32 %add.i.i.i, 64
  %mul.i.i.i = sub nsw i32 %add.i.i.i, %4
  %5 = and i32 %3, -64
  %cmp2.i.i = icmp slt i32 %5, %mul.i.i.i
  br i1 %cmp2.i.i, label %if.then3.i.i, label %if.end9.i.i

if.then3.i.i:                                     ; preds = %if.end.i.i
  %div.i.i = lshr i32 %3, 6
  %sub.i.i = and i32 %3, 63
  %sh_prom.i.i.i = zext nneg i32 %sub.i.i to i64
  %notmask.i.i.i = shl nsw i64 -1, %sh_prom.i.i.i
  %sub.i22.i.i = xor i64 %notmask.i.i.i, -1
  %sub5.i.i = sub nsw i32 %mul.i.i.i, %call2
  %sh_prom.i.i.i.i = zext nneg i32 %sub5.i.i to i64
  %notmask.i.i.i.i = shl nsw i64 -1, %sh_prom.i.i.i.i
  %sub.i.i.i.i = xor i64 %notmask.i.i.i.i, -1
  %sub.i23.i.i = sub nsw i32 64, %sub5.i.i
  %sh_prom.i24.i.i = zext nneg i32 %sub.i23.i.i to i64
  %shl.i.i.i = shl i64 %sub.i.i.i.i, %sh_prom.i24.i.i
  %and7.i.i = and i64 %shl.i.i.i, %sub.i22.i.i
  %idxprom.i.i.i = zext nneg i32 %div.i.i to i64
  %arrayidx.i.i.i = getelementptr inbounds i64, ptr %bits, i64 %idxprom.i.i.i
  %6 = load i64, ptr %arrayidx.i.i.i, align 8
  br label %_ZN8facebook5velox4bits8isAllSetEPKmiib.exit

if.end9.i.i:                                      ; preds = %if.end.i.i
  %cmp10.not.i.i = icmp eq i32 %mul.i.i.i, %call2
  br i1 %cmp10.not.i.i, label %for.cond.i.i.preheader, label %if.then11.i.i

if.then11.i.i:                                    ; preds = %if.end9.i.i
  %div12.i.i1415 = lshr i32 %call2, 6
  %sub13.i.i = sub nsw i32 %mul.i.i.i, %call2
  %sh_prom.i.i25.i.i = zext nneg i32 %sub13.i.i to i64
  %notmask.i.i26.i.i = shl nsw i64 -1, %sh_prom.i.i25.i.i
  %sub.i.i27.i.i = xor i64 %notmask.i.i26.i.i, -1
  %sub.i28.i.i = sub nsw i32 64, %sub13.i.i
  %sh_prom.i29.i.i = zext nneg i32 %sub.i28.i.i to i64
  %shl.i30.i.i = shl i64 %sub.i.i27.i.i, %sh_prom.i29.i.i
  %idxprom.i31.i.i = zext nneg i32 %div12.i.i1415 to i64
  %arrayidx.i32.i.i = getelementptr inbounds i64, ptr %bits, i64 %idxprom.i31.i.i
  %7 = load i64, ptr %arrayidx.i32.i.i, align 8
  %8 = xor i64 %7, -1
  %9 = and i64 %shl.i30.i.i, %8
  %cmp.i33.i.i = icmp eq i64 %9, 0
  br i1 %cmp.i33.i.i, label %for.cond.i.i.preheader, label %if.end9

for.cond.i.i.preheader:                           ; preds = %if.then11.i.i, %if.end9.i.i
  br label %for.cond.i.i

for.cond.i.i:                                     ; preds = %for.cond.i.i.preheader, %for.body.i.i
  %i.0.i.i = phi i32 [ %add.i.i, %for.body.i.i ], [ %mul.i.i.i, %for.cond.i.i.preheader ]
  %add.i.i = add nsw i32 %i.0.i.i, 64
  %cmp19.not.i.i = icmp sgt i32 %add.i.i, %5
  br i1 %cmp19.not.i.i, label %for.end.i.i, label %for.body.i.i

for.body.i.i:                                     ; preds = %for.cond.i.i
  %div20.i.i = sdiv i32 %i.0.i.i, 64
  %idxprom.i34.i.i = sext i32 %div20.i.i to i64
  %arrayidx.i35.i.i = getelementptr inbounds i64, ptr %bits, i64 %idxprom.i34.i.i
  %10 = load i64, ptr %arrayidx.i35.i.i, align 8
  %cmp.i36.i.i = icmp eq i64 %10, -1
  br i1 %cmp.i36.i.i, label %for.cond.i.i, label %if.end9, !llvm.loop !5

for.end.i.i:                                      ; preds = %for.cond.i.i
  %cmp25.not.i.i = icmp eq i32 %5, %3
  br i1 %cmp25.not.i.i, label %return, label %if.then26.i.i

if.then26.i.i:                                    ; preds = %for.end.i.i
  %div27.i.i = ashr i32 %3, 6
  %sub28.i.i = and i32 %3, 63
  %sh_prom.i37.i.i = zext nneg i32 %sub28.i.i to i64
  %notmask.i38.i.i = shl nsw i64 -1, %sh_prom.i37.i.i
  %idxprom.i40.i.i = sext i32 %div27.i.i to i64
  %arrayidx.i41.i.i = getelementptr inbounds i64, ptr %bits, i64 %idxprom.i40.i.i
  %11 = load i64, ptr %arrayidx.i41.i.i, align 8
  %12 = xor i64 %11, -1
  br label %_ZN8facebook5velox4bits8isAllSetEPKmiib.exit

_ZN8facebook5velox4bits8isAllSetEPKmiib.exit:     ; preds = %if.then3.i.i, %if.then26.i.i
  %sub.i39.sink.i.i.in = phi i64 [ %notmask.i38.i.i, %if.then26.i.i ], [ %6, %if.then3.i.i ]
  %.sink47.i.i = phi i64 [ %12, %if.then26.i.i ], [ %and7.i.i, %if.then3.i.i ]
  %sub.i39.sink.i.i = xor i64 %sub.i39.sink.i.i.in, -1
  %13 = and i64 %.sink47.i.i, %sub.i39.sink.i.i
  %cmp.i42.i.i = icmp eq i64 %13, 0
  br i1 %cmp.i42.i.i, label %return, label %if.end9

if.end9:                                          ; preds = %for.body.i.i, %if.then11.i.i, %_ZN8facebook5velox4bits8isAllSetEPKmiib.exit, %if.end
  br label %return

return:                                           ; preds = %for.end.i.i, %land.lhs.true, %_ZN8facebook5velox4bits8isAllSetEPKmiib.exit, %entry, %if.end9
  %retval.0 = phi i32 [ 3, %if.end9 ], [ 1, %entry ], [ 0, %_ZN8facebook5velox4bits8isAllSetEPKmiib.exit ], [ 0, %land.lhs.true ], [ 0, %for.end.i.i ]
  ret i32 %retval.0
}